; Function Attrs: mustprogress uwtable
define void @_ZN13MainStatusBar19captureEventHandlerE12CaptureEvent(ptr noundef nonnull align 8 dereferenceable(512) %0, ptr noundef nonnull %1) local_unnamed_addr #0 align 2 personality ptr @__gxx_personality_v0 {
  %3 = alloca %class.QString, align 8
  %4 = tail call noundef i32 @_ZNK12CaptureEvent14captureContextEv(ptr noundef nonnull align 8 dereferenceable(40) %1)
  %cond = icmp eq i32 %4, 1026
  br i1 %cond, label %5, label %19

5:                                                ; preds = %2
  %6 = tail call noundef i32 @_ZNK12CaptureEvent9eventTypeEv(ptr noundef nonnull align 8 dereferenceable(40) %1)
  switch i32 %6, label %19 [
    i32 4, label %7
    i32 32, label %7
    i32 64, label %7
  ]

7:                                                ; preds = %5, %5, %5
  call void @llvm.lifetime.start.p0(i64 24, ptr nonnull %3)
  %spec.select.i = getelementptr inbounds i8, ptr %0, i64 56
  call void @llvm.memset.p0.i64(ptr noundef nonnull align 8 dereferenceable(24) %3, i8 0, i64 24, i1 false)
  invoke void @_ZN7QWidget10setToolTipERK7QString(ptr noundef nonnull align 8 dereferenceable(40) %spec.select.i, ptr noundef nonnull align 8 dereferenceable(24) %3)
          to label %8 unwind label %13

8:                                                ; preds = %7
  %9 = load ptr, ptr %3, align 8
  %.not.i.i.i.i = icmp eq ptr %9, null
  br i1 %.not.i.i.i.i, label %_ZN13MainStatusBar16popGenericStatusENS_13StatusContextE.exit, label %_ZN17QArrayDataPointerIDsE5derefEv.exit.i.i.i

_ZN17QArrayDataPointerIDsE5derefEv.exit.i.i.i:    ; preds = %8
  %10 = atomicrmw sub ptr %9, i32 1 seq_cst, align 4
  %.not.i.i.i = icmp eq i32 %10, 1
  br i1 %.not.i.i.i, label %11, label %_ZN13MainStatusBar16popGenericStatusENS_13StatusContextE.exit

11:                                               ; preds = %_ZN17QArrayDataPointerIDsE5derefEv.exit.i.i.i
  %12 = load ptr, ptr %3, align 8
  call void @_ZN10QArrayData10deallocateEPS_xx(ptr noundef %12, i64 noundef 2, i64 noundef 8) #12
  br label %_ZN13MainStatusBar16popGenericStatusENS_13StatusContextE.exit

13:                                               ; preds = %7
  %14 = landingpad { ptr, i32 }
          cleanup
  %15 = load ptr, ptr %3, align 8
  %.not.i.i.i6.i = icmp eq ptr %15, null
  br i1 %.not.i.i.i6.i, label %_ZN7QStringD2Ev.exit9.i, label %_ZN17QArrayDataPointerIDsE5derefEv.exit.i.i7.i

_ZN17QArrayDataPointerIDsE5derefEv.exit.i.i7.i:   ; preds = %13
  %16 = atomicrmw sub ptr %15, i32 1 seq_cst, align 4
  %.not.i.i8.i = icmp eq i32 %16, 1
  br i1 %.not.i.i8.i, label %17, label %_ZN7QStringD2Ev.exit9.i

17:                                               ; preds = %_ZN17QArrayDataPointerIDsE5derefEv.exit.i.i7.i
  %18 = load ptr, ptr %3, align 8
  call void @_ZN10QArrayData10deallocateEPS_xx(ptr noundef %18, i64 noundef 2, i64 noundef 8) #12
  br label %_ZN7QStringD2Ev.exit9.i

_ZN7QStringD2Ev.exit9.i:                          ; preds = %17, %_ZN17QArrayDataPointerIDsE5derefEv.exit.i.i7.i, %13
  resume { ptr, i32 } %14

_ZN13MainStatusBar16popGenericStatusENS_13StatusContextE.exit: ; preds = %8, %_ZN17QArrayDataPointerIDsE5derefEv.exit.i.i.i, %11
  call void @_ZN10LabelStack7popTextEi(ptr noundef nonnull align 8 dereferenceable(112) %spec.select.i, i32 noundef 1)
  call void @llvm.lifetime.end.p0(i64 24, ptr nonnull %3)
  br label %19

19:                                               ; preds = %2, %_ZN13MainStatusBar16popGenericStatusENS_13StatusContextE.exit, %5
  ret void
}